target datalayout = "e-m:e-p270:32:32-p271:32:32-p272:64:64-i64:64-i128:128-f80:128-n8:16:32:64-S128"
target triple = "x86_64-pc-linux-gnu"

%struct.H5SL_t = type { i32, ptr, i32, i64, ptr, ptr }

@H5SL_init_g = global i8 0, align 1
@H5_libterm_g = external global i8, align 1

; Function Attrs: nounwind uwtable
define ptr @H5SL_last(ptr noundef %0) #0 {
  %2 = alloca ptr, align 8
  store ptr %0, ptr %2, align 8, !tbaa !21
  %3 = load i8, ptr @H5SL_init_g, align 1, !tbaa !3, !range !7, !noundef !8
  %4 = trunc i8 %3 to i1
  br i1 %4, label %9, label %5

5:                                                ; preds = %1
  %6 = load i8, ptr @H5_libterm_g, align 1, !tbaa !3, !range !7, !noundef !8
  %7 = trunc i8 %6 to i1
  %8 = xor i1 %7, true
  br label %9

9:                                                ; preds = %5, %1
  %10 = phi i1 [ true, %1 ], [ %8, %5 ]
  %11 = xor i1 %10, true
  %12 = xor i1 %11, true
  %13 = zext i1 %12 to i32
  %14 = sext i32 %13 to i64
  %15 = call i64 @llvm.expect.i64(i64 %14, i64 1)
  %16 = icmp ne i64 %15, 0
  br i1 %16, label %17, label %18

17:                                               ; preds = %9
  br label %18

18:                                               ; preds = %17, %9
  %19 = load ptr, ptr %2, align 8, !tbaa !21
  %20 = getelementptr inbounds nuw %struct.H5SL_t, ptr %19, i32 0, i32 5
  %21 = load ptr, ptr %20, align 8, !tbaa !35
  %22 = load ptr, ptr %2, align 8, !tbaa !21
  %23 = getelementptr inbounds nuw %struct.H5SL_t, ptr %22, i32 0, i32 4
  %24 = load ptr, ptr %23, align 8, !tbaa !34
  %25 = icmp eq ptr %21, %24
  br i1 %25, label %26, label %27

26:                                               ; preds = %18
  br label %31

27:                                               ; preds = %18
  %28 = load ptr, ptr %2, align 8, !tbaa !21
  %29 = getelementptr inbounds nuw %struct.H5SL_t, ptr %28, i32 0, i32 5
  %30 = load ptr, ptr %29, align 8, !tbaa !35
  br label %31

31:                                               ; preds = %27, %26
  %32 = phi ptr [ null, %26 ], [ %30, %27 ]
  ret ptr %32
}